target datalayout = "e-m:e-p270:32:32-p271:32:32-p272:64:64-i64:64-i128:128-f80:128-n8:16:32:64-S128"
target triple = "x86_64-pc-linux-gnu"

%struct.MRef = type { i64 }
%struct.GCRef = type { i64 }
%struct.GCproto = type { %struct.GCRef, i8, i8, i8, i8, i32, i32, %struct.GCRef, %struct.MRef, %struct.MRef, i32, i32, i32, i8, i8, i16, %struct.GCRef, i32, i32, %struct.MRef, %struct.MRef, %struct.MRef }

@.str = private unnamed_addr constant [1 x i8] zeroinitializer, align 1

; Function Attrs: nounwind uwtable
define hidden ptr @lj_debug_uvname(ptr noundef %0, i32 noundef %1) #0 {
  %3 = alloca ptr, align 8
  %4 = alloca ptr, align 8
  %5 = alloca i32, align 4
  %6 = alloca ptr, align 8
  %7 = alloca i32, align 4
  store ptr %0, ptr %4, align 8, !tbaa !24
  store i32 %1, ptr %5, align 4, !tbaa !9
  call void @llvm.lifetime.start.p0(i64 8, ptr %6) #8
  %8 = load ptr, ptr %4, align 8, !tbaa !24
  %9 = getelementptr inbounds nuw %struct.GCproto, ptr %8, i32 0, i32 20
  %10 = getelementptr inbounds nuw %struct.MRef, ptr %9, i32 0, i32 0
  %11 = load i64, ptr %10, align 8, !tbaa !34
  %12 = inttoptr i64 %11 to ptr
  store ptr %12, ptr %6, align 8, !tbaa !35
  %13 = load ptr, ptr %6, align 8, !tbaa !35
  %14 = icmp ne ptr %13, null
  br i1 %14, label %16, label %15

15:                                               ; preds = %2
  store ptr @.str, ptr %3, align 8
  store i32 1, ptr %7, align 4
  br label %36

16:                                               ; preds = %2
  %17 = load i32, ptr %5, align 4, !tbaa !9
  %18 = icmp ne i32 %17, 0
  br i1 %18, label %19, label %34

19:                                               ; preds = %16
  br label %20

20:                                               ; preds = %32, %19
  %21 = load ptr, ptr %6, align 8, !tbaa !35
  %22 = getelementptr inbounds nuw i8, ptr %21, i32 1
  store ptr %22, ptr %6, align 8, !tbaa !35
  %23 = load i8, ptr %21, align 1, !tbaa !21
  %24 = zext i8 %23 to i32
  %25 = icmp ne i32 %24, 0
  br i1 %25, label %30, label %26

26:                                               ; preds = %20
  %27 = load i32, ptr %5, align 4, !tbaa !9
  %28 = add i32 %27, -1
  store i32 %28, ptr %5, align 4, !tbaa !9
  %29 = icmp ne i32 %28, 0
  br label %30

30:                                               ; preds = %26, %20
  %31 = phi i1 [ true, %20 ], [ %29, %26 ]
  br i1 %31, label %32, label %33

32:                                               ; preds = %30
  br label %20, !llvm.loop !37

33:                                               ; preds = %30
  br label %34

34:                                               ; preds = %33, %16
  %35 = load ptr, ptr %6, align 8, !tbaa !35
  store ptr %35, ptr %3, align 8
  store i32 1, ptr %7, align 4
  br label %36

36:                                               ; preds = %34, %15
  call void @llvm.lifetime.end.p0(i64 8, ptr %6) #8
  %37 = load ptr, ptr %3, align 8
  ret ptr %37
}