; Function Attrs: nofree norecurse nosync nounwind memory(read, inaccessiblemem: none) uwtable
define hidden ptr @lj_debug_uvname(ptr noundef readonly captures(none) %0, i32 noundef %1) local_unnamed_addr #3 {
  %3 = getelementptr inbounds nuw i8, ptr %0, i64 88
  %4 = load i64, ptr %3, align 8, !tbaa !26
  %.not = icmp eq i64 %4, 0
  br i1 %.not, label %.loopexit, label %5

5:                                                ; preds = %2
  %6 = inttoptr i64 %4 to ptr
  %.not12 = icmp eq i32 %1, 0
  br i1 %.not12, label %.loopexit, label %.preheader.outer

.preheader.outer:                                 ; preds = %5, %9
  %.06.ph = phi i32 [ %10, %9 ], [ %1, %5 ]
  %.1.ph = phi ptr [ %7, %9 ], [ %6, %5 ]
  br label %.preheader

.preheader:                                       ; preds = %.preheader.outer, %.preheader
  %.1 = phi ptr [ %7, %.preheader ], [ %.1.ph, %.preheader.outer ]
  %7 = getelementptr inbounds nuw i8, ptr %.1, i64 1
  %8 = load i8, ptr %.1, align 1, !tbaa !15
  %.not13 = icmp eq i8 %8, 0
  br i1 %.not13, label %9, label %.preheader, !llvm.loop !27

9:                                                ; preds = %.preheader
  %10 = add i32 %.06.ph, -1
  %.not14 = icmp eq i32 %10, 0
  br i1 %.not14, label %.loopexit, label %.preheader.outer, !llvm.loop !27

.loopexit:                                        ; preds = %9, %5, %2
  %.08 = phi ptr [ @.str, %2 ], [ %6, %5 ], [ %7, %9 ]
  ret ptr %.08
}